target datalayout = "e-m:e-p270:32:32-p271:32:32-p272:64:64-i64:64-i128:128-f80:128-n8:16:32:64-S128"
target triple = "x86_64-pc-linux-gnu"

%struct.nstime_t = type { i64, i32 }
%struct.wtap_rec = type { i32, i32, i32, %struct.nstime_t, i32, %struct.nstime_t, i8, %union.anon, ptr, i8, %struct.Buffer, %struct.Buffer }
%union.anon = type { %struct.wtap_packet_header }
%struct.wtap_packet_header = type { i32, i32, i32, i32, %union.wtap_pseudo_header }
%union.wtap_pseudo_header = type { %struct.erf_mc_phdr }
%struct.erf_mc_phdr = type { %struct.erf_phdr, [16 x %struct.erf_ehdr], %union.anon.1 }
%struct.erf_phdr = type { i64, i8, i8, i16, i16, i16 }
%struct.erf_ehdr = type { i64 }
%union.anon.1 = type { i32 }
%struct.Buffer = type { ptr, i64, i64, i64 }
%struct.wtapng_dsb_mandatory_s = type { i32, i32, ptr }
%struct.tm = type { i32, i32, i32, i32, i32, i32, i32, i32, i32, i64, ptr }

@stdout = external global ptr, align 8
@stderr = external global ptr, align 8
@verbose = internal global i8 0, align 1
@.str.199 = private unnamed_addr constant [2 x i8] c"-\00", align 1
@.str.200 = private unnamed_addr constant [53 x i8] c"Writing secrets type \22%s\22 (0x%08x) to standard out.\0A\00", align 1
@.str.201 = private unnamed_addr constant [45 x i8] c"Writing secrets type \22%s\22 (0x%08x) to \22%s\22.\0A\00", align 1
@.str.213 = private unnamed_addr constant [5 x i8] c"%05u\00", align 1
@.str.214 = private unnamed_addr constant [2 x i8] c"_\00", align 1
@.str.215 = private unnamed_addr constant [23 x i8] c"%d%02d%02d%02d%02d%02d\00", align 1

; Function Attrs: null_pointer_is_valid sspstrong uwtable
define internal ptr @abs_time_to_str_with_sec_resolution(ptr noundef %0) #0 {
  %2 = alloca ptr, align 8
  %3 = alloca ptr, align 8
  %4 = alloca ptr, align 8
  store ptr %0, ptr %2, align 8
  call void @llvm.lifetime.start.p0(i64 8, ptr %3) #14
  call void @llvm.lifetime.start.p0(i64 8, ptr %4) #14
  %5 = call noalias ptr @g_malloc(i64 noundef 16) #16
  store ptr %5, ptr %4, align 8
  %6 = load ptr, ptr %2, align 8
  %7 = getelementptr inbounds nuw %struct.nstime_t, ptr %6, i32 0, i32 0
  %8 = call ptr @localtime(ptr noundef %7) #14
  store ptr %8, ptr %3, align 8
  %9 = load ptr, ptr %3, align 8
  %10 = icmp ne ptr %9, null
  br i1 %10, label %11, label %36

11:                                               ; preds = %1
  %12 = load ptr, ptr %4, align 8
  %13 = load ptr, ptr %4, align 8
  %14 = call i64 @llvm.objectsize.i64.p0(ptr %13, i1 false, i1 true, i1 true)
  %15 = load ptr, ptr %3, align 8
  %16 = getelementptr inbounds nuw %struct.tm, ptr %15, i32 0, i32 5
  %17 = load i32, ptr %16, align 4
  %18 = add i32 %17, 1900
  %19 = load ptr, ptr %3, align 8
  %20 = getelementptr inbounds nuw %struct.tm, ptr %19, i32 0, i32 4
  %21 = load i32, ptr %20, align 8
  %22 = add i32 %21, 1
  %23 = load ptr, ptr %3, align 8
  %24 = getelementptr inbounds nuw %struct.tm, ptr %23, i32 0, i32 3
  %25 = load i32, ptr %24, align 4
  %26 = load ptr, ptr %3, align 8
  %27 = getelementptr inbounds nuw %struct.tm, ptr %26, i32 0, i32 2
  %28 = load i32, ptr %27, align 8
  %29 = load ptr, ptr %3, align 8
  %30 = getelementptr inbounds nuw %struct.tm, ptr %29, i32 0, i32 1
  %31 = load i32, ptr %30, align 4
  %32 = load ptr, ptr %3, align 8
  %33 = getelementptr inbounds nuw %struct.tm, ptr %32, i32 0, i32 0
  %34 = load i32, ptr %33, align 8
  %35 = call i32 (ptr, i64, i32, i64, ptr, ...) @__snprintf_chk(ptr noundef %12, i64 noundef 16, i32 noundef 2, i64 noundef %14, ptr noundef @.str.215, i32 noundef %18, i32 noundef %22, i32 noundef %25, i32 noundef %28, i32 noundef %31, i32 noundef %34)
  br label %39

36:                                               ; preds = %1
  %37 = load ptr, ptr %4, align 8
  %38 = getelementptr i8, ptr %37, i64 0
  store i8 0, ptr %38, align 1
  br label %39

39:                                               ; preds = %36, %11
  %40 = load ptr, ptr %4, align 8
  call void @llvm.lifetime.end.p0(i64 8, ptr %4) #14
  call void @llvm.lifetime.end.p0(i64 8, ptr %3) #14
  ret ptr %40
}

; Function Attrs: null_pointer_is_valid sspstrong uwtable
define internal ptr @fileset_get_filename_by_pattern(i32 noundef %0, ptr noundef %1, ptr noundef %2, ptr noundef %3) #0 {
  %5 = alloca i32, align 4
  %6 = alloca ptr, align 8
  %7 = alloca ptr, align 8
  %8 = alloca ptr, align 8
  %9 = alloca [6 x i8], align 1
  %10 = alloca ptr, align 8
  %11 = alloca ptr, align 8
  store i32 %0, ptr %5, align 4
  store ptr %1, ptr %6, align 8
  store ptr %2, ptr %7, align 8
  store ptr %3, ptr %8, align 8
  call void @llvm.lifetime.start.p0(i64 6, ptr %9) #14
  call void @llvm.lifetime.start.p0(i64 8, ptr %10) #14
  call void @llvm.lifetime.start.p0(i64 8, ptr %11) #14
  %12 = getelementptr inbounds [6 x i8], ptr %9, i64 0, i64 0
  %13 = load i32, ptr %5, align 4
  %14 = urem i32 %13, 100000
  %15 = call i32 (ptr, i64, i32, i64, ptr, ...) @__snprintf_chk(ptr noundef %12, i64 noundef 6, i32 noundef 2, i64 noundef 6, ptr noundef @.str.213, i32 noundef %14)
  %16 = load ptr, ptr %6, align 8
  %17 = icmp ne ptr %16, null
  br i1 %17, label %18, label %27

18:                                               ; preds = %4
  %19 = load ptr, ptr %6, align 8
  %20 = call ptr @abs_time_to_str_with_sec_resolution(ptr noundef %19)
  store ptr %20, ptr %10, align 8
  %21 = load ptr, ptr %7, align 8
  %22 = getelementptr inbounds [6 x i8], ptr %9, i64 0, i64 0
  %23 = load ptr, ptr %10, align 8
  %24 = load ptr, ptr %8, align 8
  %25 = call noalias ptr (ptr, ...) @g_strconcat(ptr noundef %21, ptr noundef @.str.214, ptr noundef %22, ptr noundef @.str.214, ptr noundef %23, ptr noundef %24, ptr noundef null)
  store ptr %25, ptr %11, align 8
  %26 = load ptr, ptr %10, align 8
  call void @g_free(ptr noundef %26)
  br label %32

27:                                               ; preds = %4
  %28 = load ptr, ptr %7, align 8
  %29 = getelementptr inbounds [6 x i8], ptr %9, i64 0, i64 0
  %30 = load ptr, ptr %8, align 8
  %31 = call noalias ptr (ptr, ...) @g_strconcat(ptr noundef %28, ptr noundef @.str.214, ptr noundef %29, ptr noundef %30, ptr noundef null)
  store ptr %31, ptr %11, align 8
  br label %32

32:                                               ; preds = %27, %18
  %33 = load ptr, ptr %11, align 8
  call void @llvm.lifetime.end.p0(i64 8, ptr %11) #14
  call void @llvm.lifetime.end.p0(i64 8, ptr %10) #14
  call void @llvm.lifetime.end.p0(i64 6, ptr %9) #14
  ret ptr %33
}

; Function Attrs: null_pointer_is_valid sspstrong uwtable
define internal i32 @extract_secrets(ptr noundef %0, ptr noundef %1, ptr noundef %2, ptr noundef %3) #0 {
  %5 = alloca i32, align 4
  %6 = alloca ptr, align 8
  %7 = alloca ptr, align 8
  %8 = alloca ptr, align 8
  %9 = alloca ptr, align 8
  %10 = alloca %struct.wtap_rec, align 8
  %11 = alloca i64, align 8
  %12 = alloca ptr, align 8
  %13 = alloca ptr, align 8
  %14 = alloca ptr, align 8
  %15 = alloca i32, align 4
  %16 = alloca i32, align 4
  %17 = alloca ptr, align 8
  %18 = alloca i32, align 4
  store ptr %0, ptr %6, align 8
  store ptr %1, ptr %7, align 8
  store ptr %2, ptr %8, align 8
  store ptr %3, ptr %9, align 8
  call void @llvm.lifetime.start.p0(i64 312, ptr %10) #14
  call void @llvm.lifetime.start.p0(i64 8, ptr %11) #14
  call void @llvm.lifetime.start.p0(i64 8, ptr %12) #14
  store ptr null, ptr %12, align 8
  call void @llvm.lifetime.start.p0(i64 8, ptr %13) #14
  store ptr null, ptr %13, align 8
  call void @wtap_rec_init(ptr noundef %10, i64 noundef 1514)
  br label %19

19:                                               ; preds = %24, %4
  %20 = load ptr, ptr %6, align 8
  %21 = load ptr, ptr %8, align 8
  %22 = load ptr, ptr %9, align 8
  %23 = call zeroext i1 @wtap_read(ptr noundef %20, ptr noundef %10, ptr noundef %21, ptr noundef %22, ptr noundef %11)
  br i1 %23, label %24, label %25

24:                                               ; preds = %19
  call void @wtap_rec_reset(ptr noundef %10)
  br label %19, !llvm.loop !38

25:                                               ; preds = %19
  call void @wtap_rec_cleanup(ptr noundef %10)
  call void @llvm.lifetime.start.p0(i64 8, ptr %14) #14
  %26 = load ptr, ptr %7, align 8
  %27 = call i32 @strcmp(ptr noundef %26, ptr noundef @.str.199) #15
  %28 = icmp eq i32 %27, 0
  br i1 %28, label %29, label %76

29:                                               ; preds = %25
  call void @llvm.lifetime.start.p0(i64 4, ptr %15) #14
  store i32 0, ptr %15, align 4
  br label %30

30:                                               ; preds = %70, %29
  %31 = load i32, ptr %15, align 4
  %32 = load ptr, ptr %6, align 8
  %33 = call i32 @wtap_file_get_num_dsbs(ptr noundef %32)
  %34 = icmp ult i32 %31, %33
  br i1 %34, label %36, label %35

35:                                               ; preds = %30
  store i32 4, ptr %16, align 4
  br label %73

36:                                               ; preds = %30
  %37 = load ptr, ptr %6, align 8
  %38 = load i32, ptr %15, align 4
  %39 = call ptr @wtap_file_get_dsb(ptr noundef %37, i32 noundef %38)
  %40 = call ptr @wtap_block_get_mandatory_data(ptr noundef %39)
  store ptr %40, ptr %14, align 8
  %41 = load i8, ptr @verbose, align 1, !range !7, !noundef !8
  %42 = trunc i8 %41 to i1
  br i1 %42, label %43, label %53

43:                                               ; preds = %36
  %44 = load ptr, ptr @stderr, align 8
  %45 = load ptr, ptr %14, align 8
  %46 = getelementptr inbounds nuw %struct.wtapng_dsb_mandatory_s, ptr %45, i32 0, i32 0
  %47 = load i32, ptr %46, align 8
  %48 = call ptr @secrets_type_description(i32 noundef %47)
  %49 = load ptr, ptr %14, align 8
  %50 = getelementptr inbounds nuw %struct.wtapng_dsb_mandatory_s, ptr %49, i32 0, i32 0
  %51 = load i32, ptr %50, align 8
  %52 = call i32 (ptr, i32, ptr, ...) @__fprintf_chk(ptr noundef %44, i32 noundef 2, ptr noundef @.str.200, ptr noundef %48, i32 noundef %51)
  br label %53

53:                                               ; preds = %43, %36
  %54 = load ptr, ptr %14, align 8
  %55 = getelementptr inbounds nuw %struct.wtapng_dsb_mandatory_s, ptr %54, i32 0, i32 2
  %56 = load ptr, ptr %55, align 8
  %57 = load ptr, ptr %14, align 8
  %58 = getelementptr inbounds nuw %struct.wtapng_dsb_mandatory_s, ptr %57, i32 0, i32 1
  %59 = load i32, ptr %58, align 4
  %60 = zext i32 %59 to i64
  %61 = load ptr, ptr @stdout, align 8
  %62 = call i64 @fwrite(ptr noundef %56, i64 noundef 1, i64 noundef %60, ptr noundef %61)
  %63 = load ptr, ptr %14, align 8
  %64 = getelementptr inbounds nuw %struct.wtapng_dsb_mandatory_s, ptr %63, i32 0, i32 1
  %65 = load i32, ptr %64, align 4
  %66 = zext i32 %65 to i64
  %67 = icmp ne i64 %62, %66
  br i1 %67, label %68, label %69

68:                                               ; preds = %53
  store i32 2, ptr %5, align 4
  store i32 1, ptr %16, align 4
  br label %73

69:                                               ; preds = %53
  br label %70

70:                                               ; preds = %69
  %71 = load i32, ptr %15, align 4
  %72 = add i32 %71, 1
  store i32 %72, ptr %15, align 4
  br label %30, !llvm.loop !39

73:                                               ; preds = %68, %35
  call void @llvm.lifetime.end.p0(i64 4, ptr %15) #14
  %74 = load i32, ptr %16, align 4
  switch i32 %74, label %171 [
    i32 4, label %75
  ]

75:                                               ; preds = %73
  br label %170

76:                                               ; preds = %25
  %77 = load ptr, ptr %6, align 8
  %78 = call i32 @wtap_file_get_num_dsbs(ptr noundef %77)
  %79 = icmp eq i32 %78, 1
  br i1 %79, label %80, label %109

80:                                               ; preds = %76
  %81 = load ptr, ptr %6, align 8
  %82 = call ptr @wtap_file_get_dsb(ptr noundef %81, i32 noundef 0)
  %83 = call ptr @wtap_block_get_mandatory_data(ptr noundef %82)
  store ptr %83, ptr %14, align 8
  %84 = load i8, ptr @verbose, align 1, !range !7, !noundef !8
  %85 = trunc i8 %84 to i1
  br i1 %85, label %86, label %97

86:                                               ; preds = %80
  %87 = load ptr, ptr @stderr, align 8
  %88 = load ptr, ptr %14, align 8
  %89 = getelementptr inbounds nuw %struct.wtapng_dsb_mandatory_s, ptr %88, i32 0, i32 0
  %90 = load i32, ptr %89, align 8
  %91 = call ptr @secrets_type_description(i32 noundef %90)
  %92 = load ptr, ptr %14, align 8
  %93 = getelementptr inbounds nuw %struct.wtapng_dsb_mandatory_s, ptr %92, i32 0, i32 0
  %94 = load i32, ptr %93, align 8
  %95 = load ptr, ptr %7, align 8
  %96 = call i32 (ptr, i32, ptr, ...) @__fprintf_chk(ptr noundef %87, i32 noundef 2, ptr noundef @.str.201, ptr noundef %91, i32 noundef %94, ptr noundef %95)
  br label %97

97:                                               ; preds = %86, %80
  %98 = load ptr, ptr %7, align 8
  %99 = load ptr, ptr %14, align 8
  %100 = getelementptr inbounds nuw %struct.wtapng_dsb_mandatory_s, ptr %99, i32 0, i32 2
  %101 = load ptr, ptr %100, align 8
  %102 = load ptr, ptr %14, align 8
  %103 = getelementptr inbounds nuw %struct.wtapng_dsb_mandatory_s, ptr %102, i32 0, i32 1
  %104 = load i32, ptr %103, align 4
  %105 = zext i32 %104 to i64
  %106 = call zeroext i1 @write_file_binary_mode(ptr noundef %98, ptr noundef %101, i64 noundef %105)
  br i1 %106, label %108, label %107

107:                                              ; preds = %97
  store i32 2, ptr %5, align 4
  store i32 1, ptr %16, align 4
  br label %171

108:                                              ; preds = %97
  br label %169

109:                                              ; preds = %76
  %110 = load ptr, ptr %7, align 8
  %111 = call zeroext i1 @fileset_extract_prefix_suffix(ptr noundef %110, ptr noundef %12, ptr noundef %13, ptr noundef null)
  br i1 %111, label %113, label %112

112:                                              ; preds = %109
  store i32 2, ptr %5, align 4
  store i32 1, ptr %16, align 4
  br label %171

113:                                              ; preds = %109
  call void @llvm.lifetime.start.p0(i64 8, ptr %17) #14
  call void @llvm.lifetime.start.p0(i64 4, ptr %18) #14
  store i32 0, ptr %18, align 4
  br label %114

114:                                              ; preds = %158, %113
  %115 = load i32, ptr %18, align 4
  %116 = load ptr, ptr %6, align 8
  %117 = call i32 @wtap_file_get_num_dsbs(ptr noundef %116)
  %118 = icmp ult i32 %115, %117
  br i1 %118, label %120, label %119

119:                                              ; preds = %114
  store i32 7, ptr %16, align 4
  br label %161

120:                                              ; preds = %114
  %121 = load ptr, ptr %6, align 8
  %122 = load i32, ptr %18, align 4
  %123 = call ptr @wtap_file_get_dsb(ptr noundef %121, i32 noundef %122)
  %124 = call ptr @wtap_block_get_mandatory_data(ptr noundef %123)
  store ptr %124, ptr %14, align 8
  %125 = load i32, ptr %18, align 4
  %126 = load ptr, ptr %12, align 8
  %127 = load ptr, ptr %13, align 8
  %128 = call ptr @fileset_get_filename_by_pattern(i32 noundef %125, ptr noundef null, ptr noundef %126, ptr noundef %127)
  store ptr %128, ptr %17, align 8
  %129 = load i8, ptr @verbose, align 1, !range !7, !noundef !8
  %130 = trunc i8 %129 to i1
  br i1 %130, label %131, label %142

131:                                              ; preds = %120
  %132 = load ptr, ptr @stderr, align 8
  %133 = load ptr, ptr %14, align 8
  %134 = getelementptr inbounds nuw %struct.wtapng_dsb_mandatory_s, ptr %133, i32 0, i32 0
  %135 = load i32, ptr %134, align 8
  %136 = call ptr @secrets_type_description(i32 noundef %135)
  %137 = load ptr, ptr %14, align 8
  %138 = getelementptr inbounds nuw %struct.wtapng_dsb_mandatory_s, ptr %137, i32 0, i32 0
  %139 = load i32, ptr %138, align 8
  %140 = load ptr, ptr %17, align 8
  %141 = call i32 (ptr, i32, ptr, ...) @__fprintf_chk(ptr noundef %132, i32 noundef 2, ptr noundef @.str.201, ptr noundef %136, i32 noundef %139, ptr noundef %140)
  br label %142

142:                                              ; preds = %131, %120
  %143 = load ptr, ptr %17, align 8
  %144 = load ptr, ptr %14, align 8
  %145 = getelementptr inbounds nuw %struct.wtapng_dsb_mandatory_s, ptr %144, i32 0, i32 2
  %146 = load ptr, ptr %145, align 8
  %147 = load ptr, ptr %14, align 8
  %148 = getelementptr inbounds nuw %struct.wtapng_dsb_mandatory_s, ptr %147, i32 0, i32 1
  %149 = load i32, ptr %148, align 4
  %150 = zext i32 %149 to i64
  %151 = call zeroext i1 @write_file_binary_mode(ptr noundef %143, ptr noundef %146, i64 noundef %150)
  br i1 %151, label %156, label %152

152:                                              ; preds = %142
  %153 = load ptr, ptr %17, align 8
  call void @g_free(ptr noundef %153)
  %154 = load ptr, ptr %12, align 8
  call void @g_free(ptr noundef %154)
  %155 = load ptr, ptr %13, align 8
  call void @g_free(ptr noundef %155)
  store i32 2, ptr %5, align 4
  store i32 1, ptr %16, align 4
  br label %161

156:                                              ; preds = %142
  %157 = load ptr, ptr %17, align 8
  call void @g_free(ptr noundef %157)
  br label %158

158:                                              ; preds = %156
  %159 = load i32, ptr %18, align 4
  %160 = add i32 %159, 1
  store i32 %160, ptr %18, align 4
  br label %114, !llvm.loop !40

161:                                              ; preds = %152, %119
  call void @llvm.lifetime.end.p0(i64 4, ptr %18) #14
  %162 = load i32, ptr %16, align 4
  switch i32 %162, label %166 [
    i32 7, label %163
  ]

163:                                              ; preds = %161
  %164 = load ptr, ptr %12, align 8
  call void @g_free(ptr noundef %164)
  %165 = load ptr, ptr %13, align 8
  call void @g_free(ptr noundef %165)
  store i32 0, ptr %16, align 4
  br label %166

166:                                              ; preds = %163, %161
  call void @llvm.lifetime.end.p0(i64 8, ptr %17) #14
  %167 = load i32, ptr %16, align 4
  switch i32 %167, label %171 [
    i32 0, label %168
  ]

168:                                              ; preds = %166
  br label %169

169:                                              ; preds = %168, %108
  br label %170

170:                                              ; preds = %169, %75
  store i32 0, ptr %5, align 4
  store i32 1, ptr %16, align 4
  br label %171

171:                                              ; preds = %170, %166, %112, %107, %73
  call void @llvm.lifetime.end.p0(i64 8, ptr %14) #14
  call void @llvm.lifetime.end.p0(i64 8, ptr %13) #14
  call void @llvm.lifetime.end.p0(i64 8, ptr %12) #14
  call void @llvm.lifetime.end.p0(i64 8, ptr %11) #14
  call void @llvm.lifetime.end.p0(i64 312, ptr %10) #14
  %172 = load i32, ptr %5, align 4
  ret i32 %172
}