; Function Attrs: null_pointer_is_valid sspstrong uwtable
define internal fastcc range(i32 0, 3) i32 @extract_secrets(ptr noundef nonnull %0, ptr noundef %1, ptr noundef %2, ptr noundef %3) unnamed_addr #0 {
  %5 = alloca [6 x i8], align 1
  %6 = alloca %struct.wtap_rec, align 8
  %7 = alloca i64, align 8
  %8 = alloca ptr, align 8
  %9 = alloca ptr, align 8
  call void @llvm.lifetime.start.p0(i64 312, ptr nonnull %6) #21
  call void @llvm.lifetime.start.p0(i64 8, ptr nonnull %7) #21
  call void @llvm.lifetime.start.p0(i64 8, ptr nonnull %8) #21
  store ptr null, ptr %8, align 8
  call void @llvm.lifetime.start.p0(i64 8, ptr nonnull %9) #21
  store ptr null, ptr %9, align 8
  call void @wtap_rec_init(ptr noundef nonnull %6, i64 noundef 1514)
  %10 = call zeroext i1 @wtap_read(ptr noundef nonnull %0, ptr noundef nonnull %6, ptr noundef %2, ptr noundef %3, ptr noundef nonnull %7)
  br i1 %10, label %.lr.ph, label %sub_0

.lr.ph:                                           ; preds = %4, %.lr.ph
  call void @wtap_rec_reset(ptr noundef nonnull %6)
  %11 = call zeroext i1 @wtap_read(ptr noundef nonnull %0, ptr noundef nonnull %6, ptr noundef %2, ptr noundef %3, ptr noundef nonnull %7)
  br i1 %11, label %.lr.ph, label %sub_0, !llvm.loop !36

sub_0:                                            ; preds = %.lr.ph, %4
  call void @wtap_rec_cleanup(ptr noundef nonnull %6)
  %12 = load i8, ptr %1, align 1
  %.not64 = icmp eq i8 %12, 45
  br i1 %.not64, label %.tail, label %.tail.thread

.tail:                                            ; preds = %sub_0
  %13 = getelementptr inbounds nuw i8, ptr %1, i64 1
  %14 = load i8, ptr %13, align 1
  %15 = icmp eq i8 %14, 0
  br i1 %15, label %.preheader, label %.tail.thread

.preheader:                                       ; preds = %.tail
  %16 = call i32 @wtap_file_get_num_dsbs(ptr noundef nonnull %0)
  %.not5261.not = icmp eq i32 %16, 0
  br i1 %.not5261.not, label %.critedge, label %.lr.ph63

17:                                               ; preds = %28
  %18 = add nuw i32 %.04662, 1
  %19 = call i32 @wtap_file_get_num_dsbs(ptr noundef nonnull %0)
  %.not52 = icmp ult i32 %18, %19
  br i1 %.not52, label %.lr.ph63, label %.critedge, !llvm.loop !37

.lr.ph63:                                         ; preds = %.preheader, %17
  %.04662 = phi i32 [ %18, %17 ], [ 0, %.preheader ]
  %20 = call ptr @wtap_file_get_dsb(ptr noundef nonnull %0, i32 noundef %.04662)
  %21 = call ptr @wtap_block_get_mandatory_data(ptr noundef %20)
  %.b4851 = load i1, ptr @verbose, align 1
  br i1 %.b4851, label %22, label %28

22:                                               ; preds = %.lr.ph63
  %23 = load ptr, ptr @stderr, align 8
  %24 = load i32, ptr %21, align 8
  %25 = call ptr @secrets_type_description(i32 noundef %24)
  %26 = load i32, ptr %21, align 8
  %27 = call i32 (ptr, i32, ptr, ...) @__fprintf_chk(ptr noundef %23, i32 noundef 2, ptr noundef nonnull @.str.200, ptr noundef %25, i32 noundef %26)
  br label %28

28:                                               ; preds = %22, %.lr.ph63
  %29 = getelementptr inbounds nuw i8, ptr %21, i64 8
  %30 = load ptr, ptr %29, align 8
  %31 = getelementptr inbounds nuw i8, ptr %21, i64 4
  %32 = load i32, ptr %31, align 4
  %33 = zext i32 %32 to i64
  %34 = load ptr, ptr @stdout, align 8
  %35 = call i64 @fwrite(ptr noundef %30, i64 noundef 1, i64 noundef %33, ptr noundef %34)
  %36 = load i32, ptr %31, align 4
  %37 = zext i32 %36 to i64
  %.not = icmp eq i64 %35, %37
  br i1 %.not, label %17, label %.critedge56

.tail.thread:                                     ; preds = %sub_0, %.tail
  %38 = call i32 @wtap_file_get_num_dsbs(ptr noundef nonnull %0)
  %39 = icmp eq i32 %38, 1
  br i1 %39, label %40, label %56

40:                                               ; preds = %.tail.thread
  %41 = call ptr @wtap_file_get_dsb(ptr noundef nonnull %0, i32 noundef 0)
  %42 = call ptr @wtap_block_get_mandatory_data(ptr noundef %41)
  %.b4750 = load i1, ptr @verbose, align 1
  br i1 %.b4750, label %43, label %49

43:                                               ; preds = %40
  %44 = load ptr, ptr @stderr, align 8
  %45 = load i32, ptr %42, align 8
  %46 = call ptr @secrets_type_description(i32 noundef %45)
  %47 = load i32, ptr %42, align 8
  %48 = call i32 (ptr, i32, ptr, ...) @__fprintf_chk(ptr noundef %44, i32 noundef 2, ptr noundef nonnull @.str.201, ptr noundef %46, i32 noundef %47, ptr noundef %1)
  br label %49

49:                                               ; preds = %43, %40
  %50 = getelementptr inbounds nuw i8, ptr %42, i64 8
  %51 = load ptr, ptr %50, align 8
  %52 = getelementptr inbounds nuw i8, ptr %42, i64 4
  %53 = load i32, ptr %52, align 4
  %54 = zext i32 %53 to i64
  %55 = call zeroext i1 @write_file_binary_mode(ptr noundef %1, ptr noundef %51, i64 noundef %54)
  br i1 %55, label %.critedge, label %.critedge56

56:                                               ; preds = %.tail.thread
  %57 = call fastcc zeroext i1 @fileset_extract_prefix_suffix(ptr noundef %1, ptr noundef nonnull %8, ptr noundef nonnull %9, ptr noundef null)
  br i1 %57, label %.preheader57, label %.critedge56

.preheader57:                                     ; preds = %56
  %58 = call i32 @wtap_file_get_num_dsbs(ptr noundef nonnull %0)
  %.not.not58.not = icmp eq i32 %58, 0
  br i1 %.not.not58.not, label %.critedge.critedge, label %.lr.ph60

.lr.ph60:                                         ; preds = %.preheader57, %82
  %.059 = phi i32 [ %83, %82 ], [ 0, %.preheader57 ]
  %59 = call ptr @wtap_file_get_dsb(ptr noundef nonnull %0, i32 noundef %.059)
  %60 = call ptr @wtap_block_get_mandatory_data(ptr noundef %59)
  %61 = load ptr, ptr %8, align 8
  %62 = load ptr, ptr %9, align 8
  call void @llvm.lifetime.start.p0(i64 6, ptr nonnull %5) #21
  %63 = urem i32 %.059, 100000
  %64 = call i32 (ptr, i64, i32, i64, ptr, ...) @__snprintf_chk(ptr noundef nonnull %5, i64 noundef 6, i32 noundef 2, i64 noundef 6, ptr noundef nonnull @.str.213, i32 noundef %63)
  %65 = call noalias ptr (ptr, ...) @g_strconcat(ptr noundef %61, ptr noundef nonnull @.str.214, ptr noundef nonnull %5, ptr noundef %62, ptr noundef null)
  call void @llvm.lifetime.end.p0(i64 6, ptr nonnull %5) #21
  %.b49 = load i1, ptr @verbose, align 1
  br i1 %.b49, label %66, label %72

66:                                               ; preds = %.lr.ph60
  %67 = load ptr, ptr @stderr, align 8
  %68 = load i32, ptr %60, align 8
  %69 = call ptr @secrets_type_description(i32 noundef %68)
  %70 = load i32, ptr %60, align 8
  %71 = call i32 (ptr, i32, ptr, ...) @__fprintf_chk(ptr noundef %67, i32 noundef 2, ptr noundef nonnull @.str.201, ptr noundef %69, i32 noundef %70, ptr noundef %65)
  br label %72

72:                                               ; preds = %66, %.lr.ph60
  %73 = getelementptr inbounds nuw i8, ptr %60, i64 8
  %74 = load ptr, ptr %73, align 8
  %75 = getelementptr inbounds nuw i8, ptr %60, i64 4
  %76 = load i32, ptr %75, align 4
  %77 = zext i32 %76 to i64
  %78 = call zeroext i1 @write_file_binary_mode(ptr noundef %65, ptr noundef %74, i64 noundef %77)
  call void @g_free(ptr noundef %65)
  br i1 %78, label %82, label %79

79:                                               ; preds = %72
  %80 = load ptr, ptr %8, align 8
  call void @g_free(ptr noundef %80)
  %81 = load ptr, ptr %9, align 8
  call void @g_free(ptr noundef %81)
  br label %.critedge56

82:                                               ; preds = %72
  %83 = add nuw i32 %.059, 1
  %84 = call i32 @wtap_file_get_num_dsbs(ptr noundef nonnull %0)
  %.not.not = icmp ult i32 %83, %84
  br i1 %.not.not, label %.lr.ph60, label %.critedge.critedge, !llvm.loop !38

.critedge.critedge:                               ; preds = %82, %.preheader57
  %85 = load ptr, ptr %8, align 8
  call void @g_free(ptr noundef %85)
  %86 = load ptr, ptr %9, align 8
  call void @g_free(ptr noundef %86)
  br label %.critedge

.critedge:                                        ; preds = %17, %.preheader, %.critedge.critedge, %49
  br label %.critedge56

.critedge56:                                      ; preds = %28, %79, %56, %49, %.critedge
  %.1 = phi i32 [ 0, %.critedge ], [ 2, %49 ], [ 2, %56 ], [ 2, %79 ], [ 2, %28 ]
  call void @llvm.lifetime.end.p0(i64 8, ptr nonnull %9) #21
  call void @llvm.lifetime.end.p0(i64 8, ptr nonnull %8) #21
  call void @llvm.lifetime.end.p0(i64 8, ptr nonnull %7) #21
  call void @llvm.lifetime.end.p0(i64 312, ptr nonnull %6) #21
  ret i32 %.1
}